; Function Attrs: mustprogress nounwind willreturn uwtable
define void @Fra_ClassesTest(ptr noundef captures(none) initializes((40, 48)) %0, i32 noundef %1, i32 noundef %2) local_unnamed_addr #4 {
Aig_ManObj.exit18:
  %3 = tail call noalias dereferenceable_or_null(32) ptr @malloc(i64 noundef 32) #17
  %4 = getelementptr inbounds nuw i8, ptr %0, i64 40
  store ptr %3, ptr %4, align 8, !tbaa !36
  %5 = load ptr, ptr %0, align 8, !tbaa !3
  %6 = getelementptr i8, ptr %5, i64 32
  %.val14 = load ptr, ptr %6, align 8, !tbaa !13, !nonnull !82, !noundef !82
  %7 = getelementptr i8, ptr %.val14, i64 8
  %.val.i = load ptr, ptr %7, align 8, !tbaa !27
  %8 = sext i32 %1 to i64
  %9 = getelementptr inbounds ptr, ptr %.val.i, i64 %8
  %10 = load ptr, ptr %9, align 8, !tbaa !41
  store ptr %10, ptr %3, align 8, !tbaa !42
  %11 = sext i32 %2 to i64
  %12 = getelementptr inbounds ptr, ptr %.val.i, i64 %11
  %13 = load ptr, ptr %12, align 8, !tbaa !41
  %14 = getelementptr inbounds nuw i8, ptr %3, i64 8
  store ptr %13, ptr %14, align 8, !tbaa !42
  %15 = getelementptr inbounds nuw i8, ptr %3, i64 16
  %16 = getelementptr i8, ptr %13, i64 36
  tail call void @llvm.memset.p0.i64(ptr noundef nonnull align 8 dereferenceable(16) %15, i8 0, i64 16, i1 false)
  %.val = load i32, ptr %16, align 4, !tbaa !45
  %17 = getelementptr i8, ptr %13, i64 40
  %.val13 = load ptr, ptr %17, align 8, !tbaa !57
  %18 = getelementptr i8, ptr %.val13, i64 48
  %.val13.val = load ptr, ptr %18, align 8, !tbaa !58
  %19 = getelementptr i8, ptr %.val13.val, i64 8
  %.val13.val.val = load ptr, ptr %19, align 8, !tbaa !25
  %20 = sext i32 %.val to i64
  %21 = getelementptr inbounds ptr, ptr %.val13.val.val, i64 %20
  store ptr %10, ptr %21, align 8, !tbaa !42
  %22 = getelementptr inbounds nuw i8, ptr %0, i64 16
  %23 = load ptr, ptr %22, align 8, !tbaa !28
  %24 = getelementptr inbounds nuw i8, ptr %23, i64 4
  %25 = load i32, ptr %24, align 4, !tbaa !23
  %26 = load i32, ptr %23, align 8, !tbaa !26
  %27 = icmp eq i32 %25, %26
  br i1 %27, label %28, label %.Vec_PtrGrow.exit11_crit_edge.i

.Vec_PtrGrow.exit11_crit_edge.i:                  ; preds = %Aig_ManObj.exit18
  %.phi.trans.insert.i = getelementptr inbounds nuw i8, ptr %23, i64 8
  %.pre.i = load ptr, ptr %.phi.trans.insert.i, align 8, !tbaa !27
  br label %Vec_PtrPush.exit

28:                                               ; preds = %Aig_ManObj.exit18
  %29 = icmp slt i32 %25, 16
  br i1 %29, label %30, label %38

30:                                               ; preds = %28
  %31 = getelementptr inbounds nuw i8, ptr %23, i64 8
  %32 = load ptr, ptr %31, align 8, !tbaa !27
  %.not9.i.i = icmp eq ptr %32, null
  br i1 %.not9.i.i, label %35, label %33

33:                                               ; preds = %30
  %34 = tail call dereferenceable_or_null(128) ptr @realloc(ptr noundef nonnull %32, i64 noundef 128) #19
  br label %Vec_PtrGrow.exit.i

35:                                               ; preds = %30
  %36 = tail call noalias dereferenceable_or_null(128) ptr @malloc(i64 noundef 128) #17
  br label %Vec_PtrGrow.exit.i

Vec_PtrGrow.exit.i:                               ; preds = %35, %33
  %37 = phi ptr [ %34, %33 ], [ %36, %35 ]
  store ptr %37, ptr %31, align 8, !tbaa !27
  store i32 16, ptr %23, align 8, !tbaa !26
  br label %Vec_PtrPush.exit

38:                                               ; preds = %28
  %39 = shl nuw nsw i32 %25, 1
  %40 = getelementptr inbounds nuw i8, ptr %23, i64 8
  %41 = load ptr, ptr %40, align 8, !tbaa !27
  %.not9.i10.i = icmp eq ptr %41, null
  %42 = zext nneg i32 %39 to i64
  %43 = shl nuw nsw i64 %42, 3
  br i1 %.not9.i10.i, label %46, label %44

44:                                               ; preds = %38
  %45 = tail call ptr @realloc(ptr noundef nonnull %41, i64 noundef %43) #19
  br label %48

46:                                               ; preds = %38
  %47 = tail call noalias ptr @malloc(i64 noundef %43) #17
  br label %48

48:                                               ; preds = %46, %44
  %49 = phi ptr [ %45, %44 ], [ %47, %46 ]
  store ptr %49, ptr %40, align 8, !tbaa !27
  store i32 %39, ptr %23, align 8, !tbaa !26
  br label %Vec_PtrPush.exit

Vec_PtrPush.exit:                                 ; preds = %.Vec_PtrGrow.exit11_crit_edge.i, %Vec_PtrGrow.exit.i, %48
  %50 = phi ptr [ %.pre.i, %.Vec_PtrGrow.exit11_crit_edge.i ], [ %49, %48 ], [ %37, %Vec_PtrGrow.exit.i ]
  %51 = load i32, ptr %24, align 4, !tbaa !23
  %52 = add nsw i32 %51, 1
  store i32 %52, ptr %24, align 4, !tbaa !23
  %53 = sext i32 %51 to i64
  %54 = getelementptr inbounds ptr, ptr %50, i64 %53
  store ptr %3, ptr %54, align 8, !tbaa !41
  ret void
}